Certificate:
    Data:
        Version: 3 (0x2)
        Serial Number: 1 (0x1)
    Signature Algorithm: sha256WithRSAEncryption
        Issuer: CN=devcert
        Validity
            Not Before: May  7 02:51:47 2020 GMT
            Not After : Aug 10 02:51:47 2022 GMT
        Subject: CN=localhost
        Subject Public Key Info:
            Public Key Algorithm: rsaEncryption
                Public-Key: (2048 bit)
                Modulus:
                    00:ed:b5:0c:36:5e:2a:e0:e7:d9:ff:d1:18:c7:3f:
                    a4:df:ac:b7:95:53:8e:34:7f:46:3d:43:0e:69:d5:
                    4b:f1:96:ce:c7:01:43:54:74:4a:68:e3:b4:28:53:
                    28:35:1e:60:ab:8a:ed:8f:7a:d5:6a:cb:8f:7b:21:
                    53:f2:75:80:d3:0b:f2:90:de:1e:a7:a5:65:9b:5e:
                    9b:61:15:97:95:7b:af:8b:d0:b2:85:a2:19:27:9c:
                    f8:4c:4a:42:67:47:b5:e8:26:e2:3c:04:a1:e2:3b:
                    13:55:c4:00:53:bf:a7:ed:07:5f:50:ab:42:85:0f:
                    b2:44:9c:68:10:0b:f4:3e:6e:d0:d1:cd:0a:25:a6:
                    bd:fd:32:65:0e:04:59:20:27:ba:0f:69:f2:2a:58:
                    f5:fc:04:8d:4b:e1:ed:45:a8:ba:af:49:61:62:4f:
                    f7:c0:28:88:1c:08:28:94:34:9a:a3:f2:25:25:77:
                    80:e5:bf:f5:ee:29:77:a6:dc:ed:04:96:ff:8b:97:
                    d4:5f:01:d3:df:26:60:1e:9a:98:eb:50:6c:db:b5:
                    72:e5:e2:2e:20:13:5f:6c:2a:4c:5c:b1:90:3d:a2:
                    52:09:be:62:02:9f:d5:62:bb:1f:11:20:58:f3:20:
                    a9:3c:97:9b:37:d6:e7:ac:33:37:e0:ca:af:a7:a5:
                    9a:0d
                Exponent: 65537 (0x10001)
        X509v3 extensions:
            X509v3 Basic Constraints: critical
                CA:FALSE
            X509v3 Subject Key Identifier: 
                F5:AA:A4:F1:7E:A4:1E:9B:5E:BF:96:3C:6B:18:1E:E0:F0:2A:7D:47
            X509v3 Authority Key Identifier: 
                keyid:01:61:85:B5:0B:69:0D:EC:58:1F:DF:77:14:61:4C:C9:34:23:A9:CD
                DirName:/CN=devcert
                serial:B6:FB:75:60:FF:52:09:00

            X509v3 Key Usage: critical
                Digital Signature, Key Encipherment
            X509v3 Extended Key Usage: 
                TLS Web Server Authentication
            X509v3 Subject Alternative Name: 
                DNS:localhost, DNS:*.localhost
    Signature Algorithm: sha256WithRSAEncryption
         ae:93:12:f2:90:cd:e0:0b:13:8e:c2:6b:39:1a:f3:ee:2a:c5:
         f6:55:f3:e0:08:f6:49:1a:d4:6a:f8:ce:49:d8:07:ad:f9:dd:
         e1:2a:c3:f6:2c:06:8b:a7:37:0e:58:8d:32:b9:dc:78:97:25:
         0b:de:ff:55:4c:59:6b:98:2a:b8:b5:b7:c4:78:af:7d:d9:b7:
         c4:fa:d0:07:4a:53:03:7b:69:04:37:b4:da:8f:0e:8a:db:37:
         55:0c:f0:93:9c:3e:26:8a:d3:5a:2f:c0:2e:3f:0f:d7:ed:d2:
         d5:9b:e6:88:45:bd:3b:a2:20:a6:20:b6:36:7e:48:a6:2e:40:
         f8:c5:59:4c:b4:9f:ce:24:c9:e9:60:5c:65:70:a3:3d:af:1c:
         04:d1:c7:ff:ab:66:f8:37:c9:6b:68:7c:8b:07:5a:92:4a:92:
         8a:0b:44:b1:5d:ac:5c:36:a3:e3:58:81:29:6f:40:9e:49:39:
         b3:e8:a2:60:6e:11:4e:0a:c5:bc:9a:58:29:24:29:6d:f5:cf:
         b3:b4:e2:c1:40:84:97:3c:4c:c1:16:27:b6:17:80:0b:c0:3e:
         2c:38:6b:3e:95:59:7a:68:41:16:f8:c1:10:1e:c1:2c:0d:0e:
         01:ed:e5:45:3c:66:7f:20:d5:89:01:79:22:cf:29:e7:c0:b1:
         01:3d:90:fb
-----BEGIN CERTIFICATE-----
MIIDXjCCAkagAwIBAgIBATANBgkqhkiG9w0BAQsFADASMRAwDgYDVQQDDAdkZXZj
ZXJ0MB4XDTIwMDUwNzAyNTE0N1oXDTIyMDgxMDAyNTE0N1owFDESMBAGA1UEAwwJ
bG9jYWxob3N0MIIBIjANBgkqhkiG9w0BAQEFAAOCAQ8AMIIBCgKCAQEA7bUMNl4q
4OfZ/9EYxz+k36y3lVOONH9GPUMOadVL8ZbOxwFDVHRKaOO0KFMoNR5gq4rtj3rV
asuPeyFT8nWA0wvykN4ep6Vlm16bYRWXlXuvi9CyhaIZJ5z4TEpCZ0e16CbiPASh
4jsTVcQAU7+n7QdfUKtChQ+yRJxoEAv0Pm7Q0c0KJaa9/TJlDgRZICe6D2nyKlj1
/ASNS+HtRai6r0lhYk/3wCiIHAgolDSao/IlJXeA5b/17il3ptztBJb/i5fUXwHT
3yZgHpqY61Bs27Vy5eIuIBNfbCpMXLGQPaJSCb5iAp/VYrsfESBY8yCpPJebN9bn
rDM34Mqvp6WaDQIDAQABo4G8MIG5MAwGA1UdEwEB/wQCMAAwHQYDVR0OBBYEFPWq
pPF+pB6bXr+WPGsYHuDwKn1HMEIGA1UdIwQ7MDmAFAFhhbULaQ3sWB/fdxRhTMk0
I6nNoRakFDASMRAwDgYDVQQDDAdkZXZjZXJ0ggkAtvt1YP9SCQAwDgYDVR0PAQH/
BAQDAgWgMBMGA1UdJQQMMAoGCCsGAQUFBwMBMCEGA1UdEQQaMBiCCWxvY2FsaG9z
dIILKi5sb2NhbGhvc3QwDQYJKoZIhvcNAQELBQADggEBAK6TEvKQzeALE47Cazka
8+4qxfZV8+AI9kka1Gr4zknYB6353eEqw/YsBounNw5YjTK53HiXJQve/1VMWWuY
Kri1t8R4r33Zt8T60AdKUwN7aQQ3tNqPDorbN1UM8JOcPiaK01ovwC4/D9ft0tWb
5ohFvTuiIKYgtjZ+SKYuQPjFWUy0n84kyelgXGVwoz2vHATRx/+rZvg3yWtofIsH
WpJKkooLRLFdrFw2o+NYgSlvQJ5JObPoomBuEU4KxbyaWCkkKW31z7O04sFAhJc8
TMEWJ7YXgAvAPiw4az6VWXpoQRb4wRAewSwNDgHt5UU8Zn8g1YkBeSLPKefAsQE9
kPs=
-----END CERTIFICATE-----
